target datalayout = "e-m:e-p270:32:32-p271:32:32-p272:64:64-i64:64-i128:128-f80:128-n8:16:32:64-S128"
target triple = "x86_64-unknown-linux-gnu"

%"struct.node::sea::SeaResource" = type { i32, %"class.std::basic_string_view", %"class.std::basic_string_view", %"class.std::optional" }
%"class.std::basic_string_view" = type { i64, ptr }
%"class.std::optional" = type { %"struct.std::_Optional_base" }
%"struct.std::_Optional_base" = type { %"struct.std::_Optional_payload" }
%"struct.std::_Optional_payload" = type { %"struct.std::_Optional_payload_base.base", [7 x i8] }
%"struct.std::_Optional_payload_base.base" = type <{ %"union.std::_Optional_payload_base<std::basic_string_view<char>>::_Storage", i8 }>
%"union.std::_Optional_payload_base<std::basic_string_view<char>>::_Storage" = type { %"class.std::basic_string_view" }
%class.anon = type { i8 }
%"class.v8::ReturnValue" = type { ptr }
%"class.v8::IndirectHandleBase" = type { ptr }
%"class.v8::Local.15" = type { %"class.v8::LocalBase.16" }
%"class.v8::LocalBase.16" = type { %"class.v8::IndirectHandleBase" }
%"class.v8::MaybeLocal" = type { %"class.v8::Local.15" }

@_ZZN4node3sea28FindSingleExecutableResourceEvE12sea_resource = internal global %"struct.node::sea::SeaResource" zeroinitializer, align 8
@_ZGVZN4node3sea28FindSingleExecutableResourceEvE12sea_resource = internal global i64 0, align 8

; Function Attrs: mustprogress nounwind uwtable
define linkonce_odr dso_local noundef i64 @_ZNKSt17basic_string_viewIcSt11char_traitsIcEE6lengthEv(ptr noundef nonnull align 8 dereferenceable(16) %this) #4 comdat align 2 {
entry:
  %this.addr = alloca ptr, align 8
  store ptr %this, ptr %this.addr, align 8
  %this1 = load ptr, ptr %this.addr, align 8
  %_M_len = getelementptr inbounds %"class.std::basic_string_view", ptr %this1, i32 0, i32 0
  %0 = load i64, ptr %_M_len, align 8
  ret i64 %0
}

; Function Attrs: mustprogress nounwind uwtable
define linkonce_odr dso_local noundef ptr @_ZNKSt17basic_string_viewIcSt11char_traitsIcEE4dataEv(ptr noundef nonnull align 8 dereferenceable(16) %this) #4 comdat align 2 {
entry:
  %this.addr = alloca ptr, align 8
  store ptr %this, ptr %this.addr, align 8
  %this1 = load ptr, ptr %this.addr, align 8
  %_M_str = getelementptr inbounds %"class.std::basic_string_view", ptr %this1, i32 0, i32 1
  %0 = load ptr, ptr %_M_str, align 8
  ret ptr %0
}

; Function Attrs: mustprogress nounwind uwtable
define dso_local void @_ZN4node3sea28FindSingleExecutableResourceEv(ptr noalias sret(%"struct.node::sea::SeaResource") align 8 %agg.result) #4 {
entry:
  %ref.tmp = alloca %class.anon, align 1
  %0 = load atomic i8, ptr @_ZGVZN4node3sea28FindSingleExecutableResourceEvE12sea_resource acquire, align 8
  %guard.uninitialized = icmp eq i8 %0, 0
  br i1 %guard.uninitialized, label %init.check, label %init.end, !prof !5

init.check:                                       ; preds = %entry
  %1 = call i32 @__cxa_guard_acquire(ptr @_ZGVZN4node3sea28FindSingleExecutableResourceEvE12sea_resource) #3
  %tobool = icmp ne i32 %1, 0
  br i1 %tobool, label %init, label %init.end

init:                                             ; preds = %init.check
  call void @"_ZZN4node3sea28FindSingleExecutableResourceEvENK3$_0clEv"(ptr sret(%"struct.node::sea::SeaResource") align 8 @_ZZN4node3sea28FindSingleExecutableResourceEvE12sea_resource, ptr noundef nonnull align 1 dereferenceable(1) %ref.tmp)
  call void @__cxa_guard_release(ptr @_ZGVZN4node3sea28FindSingleExecutableResourceEvE12sea_resource) #3
  br label %init.end

init.end:                                         ; preds = %init, %init.check, %entry
  call void @llvm.memcpy.p0.p0.i64(ptr align 8 %agg.result, ptr align 8 @_ZZN4node3sea28FindSingleExecutableResourceEvE12sea_resource, i64 64, i1 false)
  ret void
}

; Function Attrs: mustprogress nounwind uwtable
define dso_local void @_ZN4node3sea11GetCodePathERKN2v820FunctionCallbackInfoINS1_5ValueEEE(ptr noundef nonnull align 8 dereferenceable(20) %args) #4 {
entry:
  %this.addr.i40 = alloca ptr, align 8
  %isolate.addr.i3.i = alloca ptr, align 8
  %index.addr.i4.i = alloca i32, align 4
  %addr.i.i = alloca i64, align 8
  %this.addr.i.i36 = alloca ptr, align 8
  %isolate.addr.i.i = alloca ptr, align 8
  %index.addr.i.i = alloca i32, align 4
  %this.addr.i37 = alloca ptr, align 8
  %this.addr.i34 = alloca ptr, align 8
  %slot.addr.i = alloca ptr, align 8
  %this.addr.i.i = alloca ptr, align 8
  %this.addr.i32 = alloca ptr, align 8
  %this.addr.i30 = alloca ptr, align 8
  %this.addr.i28 = alloca ptr, align 8
  %this.addr.i26 = alloca ptr, align 8
  %handle.i = alloca %"class.v8::Local.15", align 8
  %this.addr.i23 = alloca ptr, align 8
  %this.addr.i21 = alloca ptr, align 8
  %out.addr.i = alloca ptr, align 8
  %this.addr.i19 = alloca ptr, align 8
  %this.addr.i16 = alloca ptr, align 8
  %retval.i = alloca %"class.v8::ReturnValue", align 8
  %this.addr.i = alloca ptr, align 8
  %args.addr = alloca ptr, align 8
  %isolate = alloca ptr, align 8
  %sea_resource = alloca %"struct.node::sea::SeaResource", align 8
  %code_path = alloca %"class.v8::Local.15", align 8
  %ref.tmp = alloca %"class.v8::MaybeLocal", align 8
  %ref.tmp10 = alloca %"class.v8::ReturnValue", align 8
  %agg.tmp = alloca %"class.v8::Local.15", align 8
  store ptr %args, ptr %args.addr, align 8
  %0 = load ptr, ptr %args.addr, align 8
  store ptr %0, ptr %this.addr.i16, align 8
  %this1.i17 = load ptr, ptr %this.addr.i16, align 8
  %1 = load ptr, ptr %this1.i17, align 8
  %arrayidx.i18 = getelementptr inbounds i64, ptr %1, i64 1
  %2 = load ptr, ptr %arrayidx.i18, align 8
  store ptr %2, ptr %isolate, align 8
  call void @_ZN4node3sea28FindSingleExecutableResourceEv(ptr sret(%"struct.node::sea::SeaResource") align 8 %sea_resource)
  store ptr %code_path, ptr %this.addr.i19, align 8
  %this1.i20 = load ptr, ptr %this.addr.i19, align 8
  store ptr %this1.i20, ptr %this.addr.i26, align 8
  %this1.i27 = load ptr, ptr %this.addr.i26, align 8
  store ptr %this1.i27, ptr %this.addr.i28, align 8
  %this1.i29 = load ptr, ptr %this.addr.i28, align 8
  store ptr null, ptr %this1.i29, align 8
  %3 = load ptr, ptr %isolate, align 8
  %code_path1 = getelementptr inbounds %"struct.node::sea::SeaResource", ptr %sea_resource, i32 0, i32 1
  %call2 = call noundef ptr @_ZNKSt17basic_string_viewIcSt11char_traitsIcEE4dataEv(ptr noundef nonnull align 8 dereferenceable(16) %code_path1) #3
  %code_path3 = getelementptr inbounds %"struct.node::sea::SeaResource", ptr %sea_resource, i32 0, i32 1
  %call4 = call noundef i64 @_ZNKSt17basic_string_viewIcSt11char_traitsIcEE6lengthEv(ptr noundef nonnull align 8 dereferenceable(16) %code_path3) #3
  %conv = trunc i64 %call4 to i32
  %call5 = call ptr @_ZN2v86String11NewFromUtf8EPNS_7IsolateEPKcNS_13NewStringTypeEi(ptr noundef %3, ptr noundef %call2, i32 noundef 0, i32 noundef %conv)
  %coerce.dive = getelementptr inbounds %"class.v8::MaybeLocal", ptr %ref.tmp, i32 0, i32 0
  %coerce.dive6 = getelementptr inbounds %"class.v8::Local.15", ptr %coerce.dive, i32 0, i32 0
  %coerce.dive7 = getelementptr inbounds %"class.v8::LocalBase.16", ptr %coerce.dive6, i32 0, i32 0
  %coerce.dive8 = getelementptr inbounds %"class.v8::IndirectHandleBase", ptr %coerce.dive7, i32 0, i32 0
  store ptr %call5, ptr %coerce.dive8, align 8
  store ptr %ref.tmp, ptr %this.addr.i21, align 8
  store ptr %code_path, ptr %out.addr.i, align 8
  %this1.i22 = load ptr, ptr %this.addr.i21, align 8
  %4 = load ptr, ptr %out.addr.i, align 8
  call void @llvm.memcpy.p0.p0.i64(ptr align 8 %4, ptr align 8 %this1.i22, i64 8, i1 false)
  store ptr %this1.i22, ptr %this.addr.i32, align 8
  %this1.i33 = load ptr, ptr %this.addr.i32, align 8
  store ptr %this1.i33, ptr %this.addr.i.i, align 8
  %this1.i.i = load ptr, ptr %this.addr.i.i, align 8
  %5 = load ptr, ptr %this1.i.i, align 8
  %cmp.i.i = icmp eq ptr %5, null
  %lnot.i = xor i1 %cmp.i.i, true
  %lnot = xor i1 %lnot.i, true
  br i1 %lnot, label %if.then, label %if.end

if.then:                                          ; preds = %entry
  br label %return

if.end:                                           ; preds = %entry
  %6 = load ptr, ptr %args.addr, align 8
  store ptr %6, ptr %this.addr.i, align 8
  %this1.i = load ptr, ptr %this.addr.i, align 8
  %7 = load ptr, ptr %this1.i, align 8
  %arrayidx.i = getelementptr inbounds i64, ptr %7, i64 3
  store ptr %retval.i, ptr %this.addr.i34, align 8
  store ptr %arrayidx.i, ptr %slot.addr.i, align 8
  %this1.i35 = load ptr, ptr %this.addr.i34, align 8
  %8 = load ptr, ptr %slot.addr.i, align 8
  store ptr %8, ptr %this1.i35, align 8
  %9 = load ptr, ptr %retval.i, align 8
  %coerce.dive12 = getelementptr inbounds %"class.v8::ReturnValue", ptr %ref.tmp10, i32 0, i32 0
  store ptr %9, ptr %coerce.dive12, align 8
  call void @llvm.memcpy.p0.p0.i64(ptr align 8 %agg.tmp, ptr align 8 %code_path, i64 8, i1 false)
  %coerce.dive13 = getelementptr inbounds %"class.v8::Local.15", ptr %agg.tmp, i32 0, i32 0
  %coerce.dive14 = getelementptr inbounds %"class.v8::LocalBase.16", ptr %coerce.dive13, i32 0, i32 0
  %coerce.dive15 = getelementptr inbounds %"class.v8::IndirectHandleBase", ptr %coerce.dive14, i32 0, i32 0
  %10 = load ptr, ptr %coerce.dive15, align 8
  store ptr %10, ptr %handle.i, align 8
  store ptr %ref.tmp10, ptr %this.addr.i23, align 8
  %this3.i = load ptr, ptr %this.addr.i23, align 8
  store ptr %handle.i, ptr %this.addr.i30, align 8
  %this1.i31 = load ptr, ptr %this.addr.i30, align 8
  %11 = load ptr, ptr %this1.i31, align 8
  %cmp.i = icmp eq ptr %11, null
  br i1 %cmp.i, label %if.then.i, label %if.else.i

if.then.i:                                        ; preds = %if.end
  store ptr %this3.i, ptr %this.addr.i37, align 8
  %this1.i38 = load ptr, ptr %this.addr.i37, align 8
  store ptr %this1.i38, ptr %this.addr.i.i36, align 8
  %this1.i.i39 = load ptr, ptr %this.addr.i.i36, align 8
  %12 = load ptr, ptr %this1.i.i39, align 8
  %arrayidx.i.i = getelementptr inbounds i64, ptr %12, i64 -2
  %13 = load ptr, ptr %arrayidx.i.i, align 8
  store ptr %13, ptr %isolate.addr.i.i, align 8
  store i32 5, ptr %index.addr.i.i, align 4
  %14 = load ptr, ptr %isolate.addr.i.i, align 8
  %15 = load i32, ptr %index.addr.i.i, align 4
  store ptr %14, ptr %isolate.addr.i3.i, align 8
  store i32 %15, ptr %index.addr.i4.i, align 4
  %16 = load ptr, ptr %isolate.addr.i3.i, align 8
  %17 = ptrtoint ptr %16 to i64
  %add.i.i = add i64 %17, 576
  %18 = load i32, ptr %index.addr.i4.i, align 4
  %mul.i.i = mul nsw i32 %18, 8
  %conv.i.i = sext i32 %mul.i.i to i64
  %add1.i.i = add i64 %add.i.i, %conv.i.i
  store i64 %add1.i.i, ptr %addr.i.i, align 8
  %19 = load i64, ptr %addr.i.i, align 8
  %20 = inttoptr i64 %19 to ptr
  %21 = load i64, ptr %20, align 8
  %22 = load ptr, ptr %this3.i, align 8
  store i64 %21, ptr %22, align 8
  br label %_ZN2v811ReturnValueINS_5ValueEE3SetINS_6StringEEEvNS_5LocalIT_EE.exit

if.else.i:                                        ; preds = %if.end
  store ptr %handle.i, ptr %this.addr.i40, align 8
  %this1.i41 = load ptr, ptr %this.addr.i40, align 8
  %23 = load ptr, ptr %this1.i41, align 8
  %24 = load i64, ptr %23, align 8
  %25 = load ptr, ptr %this3.i, align 8
  store i64 %24, ptr %25, align 8
  br label %_ZN2v811ReturnValueINS_5ValueEE3SetINS_6StringEEEvNS_5LocalIT_EE.exit

_ZN2v811ReturnValueINS_5ValueEE3SetINS_6StringEEEvNS_5LocalIT_EE.exit: ; preds = %if.else.i, %if.then.i
  br label %return

return:                                           ; preds = %_ZN2v811ReturnValueINS_5ValueEE3SetINS_6StringEEEvNS_5LocalIT_EE.exit, %if.then
  ret void
}