; Function Attrs: mustprogress nounwind uwtable
define dso_local void @_ZN4node3sea11GetCodePathERKN2v820FunctionCallbackInfoINS1_5ValueEEE(ptr nocapture noundef nonnull readonly align 8 dereferenceable(20) %args) #4 {
entry:
  %0 = load ptr, ptr %args, align 8
  %arrayidx.i18 = getelementptr inbounds i8, ptr %0, i64 8
  %1 = load ptr, ptr %arrayidx.i18, align 8
  %2 = load atomic i8, ptr @_ZGVZN4node3sea28FindSingleExecutableResourceEvE12sea_resource acquire, align 8, !noalias !12
  %guard.uninitialized.i = icmp eq i8 %2, 0
  br i1 %guard.uninitialized.i, label %init.check.i, label %_ZN4node3sea28FindSingleExecutableResourceEv.exit, !prof !5

init.check.i:                                     ; preds = %entry
  %3 = tail call i32 @__cxa_guard_acquire(ptr nonnull @_ZGVZN4node3sea28FindSingleExecutableResourceEvE12sea_resource) #23, !noalias !12
  %tobool.not.i = icmp eq i32 %3, 0
  br i1 %tobool.not.i, label %_ZN4node3sea28FindSingleExecutableResourceEv.exit, label %init.i

init.i:                                           ; preds = %init.check.i
  tail call fastcc void @"_ZZN4node3sea28FindSingleExecutableResourceEvENK3$_0clEv"(), !noalias !12
  tail call void @__cxa_guard_release(ptr nonnull @_ZGVZN4node3sea28FindSingleExecutableResourceEvE12sea_resource) #23, !noalias !12
  br label %_ZN4node3sea28FindSingleExecutableResourceEv.exit

_ZN4node3sea28FindSingleExecutableResourceEv.exit: ; preds = %entry, %init.check.i, %init.i
  %sea_resource.sroa.1.0.copyload = load i64, ptr getelementptr inbounds (%"struct.node::sea::SeaResource", ptr @_ZZN4node3sea28FindSingleExecutableResourceEvE12sea_resource, i64 0, i32 1, i32 0), align 8
  %sea_resource.sroa.2.0.copyload = load ptr, ptr getelementptr inbounds (%"struct.node::sea::SeaResource", ptr @_ZZN4node3sea28FindSingleExecutableResourceEvE12sea_resource, i64 0, i32 1, i32 1), align 8
  %conv = trunc i64 %sea_resource.sroa.1.0.copyload to i32
  %call5 = tail call ptr @_ZN2v86String11NewFromUtf8EPNS_7IsolateEPKcNS_13NewStringTypeEi(ptr noundef %1, ptr noundef %sea_resource.sroa.2.0.copyload, i32 noundef 0, i32 noundef %conv) #23
  %cmp.i.i = icmp eq ptr %call5, null
  br i1 %cmp.i.i, label %return, label %if.else.i

if.else.i:                                        ; preds = %_ZN4node3sea28FindSingleExecutableResourceEv.exit
  %4 = load ptr, ptr %args, align 8
  %arrayidx.i = getelementptr inbounds i8, ptr %4, i64 24
  %5 = load i64, ptr %call5, align 8
  store i64 %5, ptr %arrayidx.i, align 8
  br label %return

return:                                           ; preds = %if.else.i, %_ZN4node3sea28FindSingleExecutableResourceEv.exit
  ret void
}